; Function Attrs: mustprogress nounwind uwtable
define hidden void @_ZNK11OldGCTracer17send_old_gc_eventEv(ptr nocapture noundef nonnull readonly align 8 dereferenceable(80) %0) local_unnamed_addr #1 align 2 {
  %2 = alloca %class.EventOldGarbageCollection, align 8
  %3 = getelementptr inbounds i8, ptr %2, i64 16
  store i8 1, ptr %3, align 8
  %4 = getelementptr inbounds i8, ptr %2, i64 17
  store i8 0, ptr %4, align 1
  %5 = getelementptr inbounds i8, ptr %2, i64 18
  store i8 0, ptr %5, align 2
  %6 = load i8, ptr getelementptr inbounds (i8, ptr @_ZN15JfrEventSetting19_jvm_event_settingsE, i64 1193), align 1
  %.not.i = icmp eq i8 %6, 0
  br i1 %.not.i, label %_ZN8JfrEventI25EventOldGarbageCollectionE13should_commitEv.exit, label %7

7:                                                ; preds = %1
  %8 = tail call noundef i32 @_ZN4GCId7currentEv() #11
  %9 = getelementptr inbounds i8, ptr %2, i64 20
  store i32 %8, ptr %9, align 4
  %10 = getelementptr inbounds i8, ptr %0, i64 16
  %.sroa.0.0.copyload.i = load i64, ptr %10, align 8
  %.sroa.2.0..sroa_idx.i = getelementptr inbounds i8, ptr %0, i64 24
  %.sroa.2.0.copyload.i = load i64, ptr %.sroa.2.0..sroa_idx.i, align 8
  %11 = load i8, ptr @_ZN7JfrTime11_ft_enabledE, align 1
  %12 = trunc i8 %11 to i1
  %13 = select i1 %12, i64 %.sroa.2.0.copyload.i, i64 %.sroa.0.0.copyload.i
  store i64 %13, ptr %2, align 8
  %14 = getelementptr inbounds i8, ptr %0, i64 32
  %.sroa.0.0.copyload.i1 = load i64, ptr %14, align 8
  %.sroa.2.0..sroa_idx.i2 = getelementptr inbounds i8, ptr %0, i64 40
  %.sroa.2.0.copyload.i3 = load i64, ptr %.sroa.2.0..sroa_idx.i2, align 8
  %15 = select i1 %12, i64 %.sroa.2.0.copyload.i3, i64 %.sroa.0.0.copyload.i1
  %16 = getelementptr inbounds i8, ptr %2, i64 8
  store i64 %15, ptr %16, align 8
  call void @_ZN8JfrEventI25EventOldGarbageCollectionE6commitEv(ptr noundef nonnull align 8 dereferenceable(19) %2)
  br label %_ZN8JfrEventI25EventOldGarbageCollectionE13should_commitEv.exit

_ZN8JfrEventI25EventOldGarbageCollectionE13should_commitEv.exit: ; preds = %1, %7
  ret void
}